target datalayout = "e-m:e-p270:32:32-p271:32:32-p272:64:64-i64:64-i128:128-f80:128-n8:16:32:64-S128"
target triple = "x86_64-pc-linux-gnu"

%struct.__storeu_pd = type { <2 x double> }

; Function Attrs: alwaysinline nounwind sspstrong uwtable
define internal void @_mm_storeu_pd(ptr noundef %0, <2 x double> noundef %1) #2 {
  %3 = alloca ptr, align 8
  %4 = alloca <2 x double>, align 16
  store ptr %0, ptr %3, align 8, !tbaa !10
  store <2 x double> %1, ptr %4, align 16, !tbaa !12
  %5 = load <2 x double>, ptr %4, align 16, !tbaa !12
  %6 = load ptr, ptr %3, align 8, !tbaa !10
  %7 = getelementptr inbounds nuw %struct.__storeu_pd, ptr %6, i32 0, i32 0
  store <2 x double> %5, ptr %7, align 1, !tbaa !12
  ret void
}

; Function Attrs: alwaysinline nounwind sspstrong uwtable
define internal <2 x double> @_mm_add_pd(<2 x double> noundef %0, <2 x double> noundef %1) #2 {
  %3 = alloca <2 x double>, align 16
  %4 = alloca <2 x double>, align 16
  store <2 x double> %0, ptr %3, align 16, !tbaa !12
  store <2 x double> %1, ptr %4, align 16, !tbaa !12
  %5 = load <2 x double>, ptr %3, align 16, !tbaa !12
  %6 = load <2 x double>, ptr %4, align 16, !tbaa !12
  %7 = fadd reassoc nsz arcp <2 x double> %5, %6
  ret <2 x double> %7
}

; Function Attrs: alwaysinline nounwind sspstrong uwtable
define internal <2 x double> @_mm_mul_pd(<2 x double> noundef %0, <2 x double> noundef %1) #2 {
  %3 = alloca <2 x double>, align 16
  %4 = alloca <2 x double>, align 16
  store <2 x double> %0, ptr %3, align 16, !tbaa !12
  store <2 x double> %1, ptr %4, align 16, !tbaa !12
  %5 = load <2 x double>, ptr %3, align 16, !tbaa !12
  %6 = load <2 x double>, ptr %4, align 16, !tbaa !12
  %7 = fmul reassoc nsz arcp <2 x double> %5, %6
  ret <2 x double> %7
}

; Function Attrs: alwaysinline nounwind sspstrong uwtable
define internal <2 x double> @_mm_set1_pd(double noundef %0) #2 {
  %2 = alloca double, align 8
  %3 = alloca <2 x double>, align 16
  store double %0, ptr %2, align 8, !tbaa !17
  %4 = load double, ptr %2, align 8, !tbaa !17
  %5 = insertelement <2 x double> poison, double %4, i32 0
  %6 = load double, ptr %2, align 8, !tbaa !17
  %7 = insertelement <2 x double> %5, double %6, i32 1
  store <2 x double> %7, ptr %3, align 16, !tbaa !12
  %8 = load <2 x double>, ptr %3, align 16, !tbaa !12
  ret <2 x double> %8
}

; Function Attrs: alwaysinline nounwind sspstrong uwtable
define internal <2 x double> @_mm_setzero_pd() #2 {
  %1 = alloca <2 x double>, align 16
  store <2 x double> zeroinitializer, ptr %1, align 16, !tbaa !12
  %2 = load <2 x double>, ptr %1, align 16, !tbaa !12
  ret <2 x double> %2
}

; Function Attrs: nounwind sspstrong uwtable
define hidden void @FLAC__lpc_compute_autocorrelation_intrin_sse2_lag_10(ptr noundef %0, i32 noundef %1, i32 noundef %2, ptr noundef %3) #0 {
  %5 = alloca ptr, align 8
  %6 = alloca i32, align 4
  %7 = alloca i32, align 4
  %8 = alloca ptr, align 8
  %9 = alloca i32, align 4
  %10 = alloca <2 x double>, align 16
  %11 = alloca <2 x double>, align 16
  %12 = alloca <2 x double>, align 16
  %13 = alloca <2 x double>, align 16
  %14 = alloca <2 x double>, align 16
  %15 = alloca <2 x double>, align 16
  %16 = alloca <2 x double>, align 16
  %17 = alloca <2 x double>, align 16
  %18 = alloca <2 x double>, align 16
  %19 = alloca <2 x double>, align 16
  %20 = alloca <2 x double>, align 16
  store ptr %0, ptr %5, align 8, !tbaa !3
  store i32 %1, ptr %6, align 4, !tbaa !8
  store i32 %2, ptr %7, align 4, !tbaa !8
  store ptr %3, ptr %8, align 8, !tbaa !10
  call void @llvm.lifetime.start.p0(i64 4, ptr %9) #4
  call void @llvm.lifetime.start.p0(i64 16, ptr %10) #4
  call void @llvm.lifetime.start.p0(i64 16, ptr %11) #4
  call void @llvm.lifetime.start.p0(i64 16, ptr %12) #4
  call void @llvm.lifetime.start.p0(i64 16, ptr %13) #4
  call void @llvm.lifetime.start.p0(i64 16, ptr %14) #4
  call void @llvm.lifetime.start.p0(i64 16, ptr %15) #4
  call void @llvm.lifetime.start.p0(i64 16, ptr %16) #4
  call void @llvm.lifetime.start.p0(i64 16, ptr %17) #4
  call void @llvm.lifetime.start.p0(i64 16, ptr %18) #4
  call void @llvm.lifetime.start.p0(i64 16, ptr %19) #4
  %21 = call reassoc nsz arcp <2 x double> @_mm_setzero_pd()
  store <2 x double> %21, ptr %10, align 16, !tbaa !12
  %22 = call reassoc nsz arcp <2 x double> @_mm_setzero_pd()
  store <2 x double> %22, ptr %11, align 16, !tbaa !12
  %23 = call reassoc nsz arcp <2 x double> @_mm_setzero_pd()
  store <2 x double> %23, ptr %12, align 16, !tbaa !12
  %24 = call reassoc nsz arcp <2 x double> @_mm_setzero_pd()
  store <2 x double> %24, ptr %13, align 16, !tbaa !12
  %25 = call reassoc nsz arcp <2 x double> @_mm_setzero_pd()
  store <2 x double> %25, ptr %14, align 16, !tbaa !12
  %26 = call reassoc nsz arcp <2 x double> @_mm_setzero_pd()
  store <2 x double> %26, ptr %15, align 16, !tbaa !12
  %27 = call reassoc nsz arcp <2 x double> @_mm_setzero_pd()
  store <2 x double> %27, ptr %16, align 16, !tbaa !12
  %28 = call reassoc nsz arcp <2 x double> @_mm_setzero_pd()
  store <2 x double> %28, ptr %17, align 16, !tbaa !12
  %29 = call reassoc nsz arcp <2 x double> @_mm_setzero_pd()
  store <2 x double> %29, ptr %19, align 16, !tbaa !12
  %30 = call reassoc nsz arcp <2 x double> @_mm_setzero_pd()
  store <2 x double> %30, ptr %18, align 16, !tbaa !12
  %31 = load i32, ptr %6, align 4, !tbaa !8
  %32 = sub i32 %31, 1
  store i32 %32, ptr %9, align 4, !tbaa !8
  br label %33

33:                                               ; preds = %84, %4
  %34 = load i32, ptr %9, align 4, !tbaa !8
  %35 = icmp sge i32 %34, 0
  br i1 %35, label %36, label %87

36:                                               ; preds = %33
  call void @llvm.lifetime.start.p0(i64 16, ptr %20) #4
  %37 = load ptr, ptr %5, align 8, !tbaa !3
  %38 = load i32, ptr %9, align 4, !tbaa !8
  %39 = sext i32 %38 to i64
  %40 = getelementptr inbounds float, ptr %37, i64 %39
  %41 = load float, ptr %40, align 4, !tbaa !13
  %42 = fpext reassoc nsz arcp float %41 to double
  %43 = call reassoc nsz arcp <2 x double> @_mm_set1_pd(double noundef %42)
  store <2 x double> %43, ptr %20, align 16, !tbaa !12
  %44 = load <2 x double>, ptr %17, align 16, !tbaa !12
  %45 = load <2 x double>, ptr %18, align 16, !tbaa !12
  %46 = shufflevector <2 x double> %44, <2 x double> %45, <2 x i32> <i32 1, i32 2>
  store <2 x double> %46, ptr %18, align 16, !tbaa !12
  %47 = load <2 x double>, ptr %16, align 16, !tbaa !12
  %48 = load <2 x double>, ptr %17, align 16, !tbaa !12
  %49 = shufflevector <2 x double> %47, <2 x double> %48, <2 x i32> <i32 1, i32 2>
  store <2 x double> %49, ptr %17, align 16, !tbaa !12
  %50 = load <2 x double>, ptr %15, align 16, !tbaa !12
  %51 = load <2 x double>, ptr %16, align 16, !tbaa !12
  %52 = shufflevector <2 x double> %50, <2 x double> %51, <2 x i32> <i32 1, i32 2>
  store <2 x double> %52, ptr %16, align 16, !tbaa !12
  %53 = load <2 x double>, ptr %14, align 16, !tbaa !12
  %54 = load <2 x double>, ptr %15, align 16, !tbaa !12
  %55 = shufflevector <2 x double> %53, <2 x double> %54, <2 x i32> <i32 1, i32 2>
  store <2 x double> %55, ptr %15, align 16, !tbaa !12
  %56 = load <2 x double>, ptr %20, align 16, !tbaa !12
  %57 = load <2 x double>, ptr %14, align 16, !tbaa !12
  %58 = shufflevector <2 x double> %56, <2 x double> %57, <2 x i32> <i32 1, i32 2>
  store <2 x double> %58, ptr %14, align 16, !tbaa !12
  %59 = load <2 x double>, ptr %10, align 16, !tbaa !12
  %60 = load <2 x double>, ptr %20, align 16, !tbaa !12
  %61 = load <2 x double>, ptr %14, align 16, !tbaa !12
  %62 = call reassoc nsz arcp <2 x double> @_mm_mul_pd(<2 x double> noundef %60, <2 x double> noundef %61)
  %63 = call reassoc nsz arcp <2 x double> @_mm_add_pd(<2 x double> noundef %59, <2 x double> noundef %62)
  store <2 x double> %63, ptr %10, align 16, !tbaa !12
  %64 = load <2 x double>, ptr %11, align 16, !tbaa !12
  %65 = load <2 x double>, ptr %20, align 16, !tbaa !12
  %66 = load <2 x double>, ptr %15, align 16, !tbaa !12
  %67 = call reassoc nsz arcp <2 x double> @_mm_mul_pd(<2 x double> noundef %65, <2 x double> noundef %66)
  %68 = call reassoc nsz arcp <2 x double> @_mm_add_pd(<2 x double> noundef %64, <2 x double> noundef %67)
  store <2 x double> %68, ptr %11, align 16, !tbaa !12
  %69 = load <2 x double>, ptr %12, align 16, !tbaa !12
  %70 = load <2 x double>, ptr %20, align 16, !tbaa !12
  %71 = load <2 x double>, ptr %16, align 16, !tbaa !12
  %72 = call reassoc nsz arcp <2 x double> @_mm_mul_pd(<2 x double> noundef %70, <2 x double> noundef %71)
  %73 = call reassoc nsz arcp <2 x double> @_mm_add_pd(<2 x double> noundef %69, <2 x double> noundef %72)
  store <2 x double> %73, ptr %12, align 16, !tbaa !12
  %74 = load <2 x double>, ptr %13, align 16, !tbaa !12
  %75 = load <2 x double>, ptr %20, align 16, !tbaa !12
  %76 = load <2 x double>, ptr %17, align 16, !tbaa !12
  %77 = call reassoc nsz arcp <2 x double> @_mm_mul_pd(<2 x double> noundef %75, <2 x double> noundef %76)
  %78 = call reassoc nsz arcp <2 x double> @_mm_add_pd(<2 x double> noundef %74, <2 x double> noundef %77)
  store <2 x double> %78, ptr %13, align 16, !tbaa !12
  %79 = load <2 x double>, ptr %19, align 16, !tbaa !12
  %80 = load <2 x double>, ptr %20, align 16, !tbaa !12
  %81 = load <2 x double>, ptr %18, align 16, !tbaa !12
  %82 = call reassoc nsz arcp <2 x double> @_mm_mul_pd(<2 x double> noundef %80, <2 x double> noundef %81)
  %83 = call reassoc nsz arcp <2 x double> @_mm_add_pd(<2 x double> noundef %79, <2 x double> noundef %82)
  store <2 x double> %83, ptr %19, align 16, !tbaa !12
  call void @llvm.lifetime.end.p0(i64 16, ptr %20) #4
  br label %84

84:                                               ; preds = %36
  %85 = load i32, ptr %9, align 4, !tbaa !8
  %86 = add nsw i32 %85, -1
  store i32 %86, ptr %9, align 4, !tbaa !8
  br label %33, !llvm.loop !19

87:                                               ; preds = %33
  %88 = load ptr, ptr %8, align 8, !tbaa !10
  %89 = load <2 x double>, ptr %10, align 16, !tbaa !12
  call void @_mm_storeu_pd(ptr noundef %88, <2 x double> noundef %89)
  %90 = load ptr, ptr %8, align 8, !tbaa !10
  %91 = getelementptr inbounds double, ptr %90, i64 2
  %92 = load <2 x double>, ptr %11, align 16, !tbaa !12
  call void @_mm_storeu_pd(ptr noundef %91, <2 x double> noundef %92)
  %93 = load ptr, ptr %8, align 8, !tbaa !10
  %94 = getelementptr inbounds double, ptr %93, i64 4
  %95 = load <2 x double>, ptr %12, align 16, !tbaa !12
  call void @_mm_storeu_pd(ptr noundef %94, <2 x double> noundef %95)
  %96 = load ptr, ptr %8, align 8, !tbaa !10
  %97 = getelementptr inbounds double, ptr %96, i64 6
  %98 = load <2 x double>, ptr %13, align 16, !tbaa !12
  call void @_mm_storeu_pd(ptr noundef %97, <2 x double> noundef %98)
  %99 = load ptr, ptr %8, align 8, !tbaa !10
  %100 = getelementptr inbounds double, ptr %99, i64 8
  %101 = load <2 x double>, ptr %19, align 16, !tbaa !12
  call void @_mm_storeu_pd(ptr noundef %100, <2 x double> noundef %101)
  call void @llvm.lifetime.end.p0(i64 16, ptr %19) #4
  call void @llvm.lifetime.end.p0(i64 16, ptr %18) #4
  call void @llvm.lifetime.end.p0(i64 16, ptr %17) #4
  call void @llvm.lifetime.end.p0(i64 16, ptr %16) #4
  call void @llvm.lifetime.end.p0(i64 16, ptr %15) #4
  call void @llvm.lifetime.end.p0(i64 16, ptr %14) #4
  call void @llvm.lifetime.end.p0(i64 16, ptr %13) #4
  call void @llvm.lifetime.end.p0(i64 16, ptr %12) #4
  call void @llvm.lifetime.end.p0(i64 16, ptr %11) #4
  call void @llvm.lifetime.end.p0(i64 16, ptr %10) #4
  call void @llvm.lifetime.end.p0(i64 4, ptr %9) #4
  ret void
}