; Function Attrs: nofree norecurse nosync nounwind sspstrong memory(argmem: readwrite) uwtable
define hidden void @FLAC__lpc_compute_autocorrelation_intrin_sse2_lag_10(ptr noundef readonly captures(none) %0, i32 noundef %1, i32 noundef %2, ptr noundef writeonly captures(none) %3) local_unnamed_addr #0 {
  %.049 = add i32 %1, -1
  %5 = icmp sgt i32 %.049, -1
  br i1 %5, label %.lr.ph.preheader, label %._crit_edge

.lr.ph.preheader:                                 ; preds = %4
  %6 = zext nneg i32 %.049 to i64
  br label %.lr.ph

.lr.ph:                                           ; preds = %.lr.ph.preheader, %.lr.ph
  %indvars.iv = phi i64 [ %6, %.lr.ph.preheader ], [ %indvars.iv.next, %.lr.ph ]
  %.03959 = phi <2 x double> [ zeroinitializer, %.lr.ph.preheader ], [ %26, %.lr.ph ]
  %.04058 = phi <2 x double> [ zeroinitializer, %.lr.ph.preheader ], [ %12, %.lr.ph ]
  %.04157 = phi <2 x double> [ zeroinitializer, %.lr.ph.preheader ], [ %13, %.lr.ph ]
  %.04256 = phi <2 x double> [ zeroinitializer, %.lr.ph.preheader ], [ %14, %.lr.ph ]
  %.04355 = phi <2 x double> [ zeroinitializer, %.lr.ph.preheader ], [ %15, %.lr.ph ]
  %.04454 = phi <2 x double> [ zeroinitializer, %.lr.ph.preheader ], [ %16, %.lr.ph ]
  %.04553 = phi <2 x double> [ zeroinitializer, %.lr.ph.preheader ], [ %24, %.lr.ph ]
  %.04652 = phi <2 x double> [ zeroinitializer, %.lr.ph.preheader ], [ %22, %.lr.ph ]
  %.04751 = phi <2 x double> [ zeroinitializer, %.lr.ph.preheader ], [ %20, %.lr.ph ]
  %.04850 = phi <2 x double> [ zeroinitializer, %.lr.ph.preheader ], [ %18, %.lr.ph ]
  %7 = getelementptr inbounds nuw float, ptr %0, i64 %indvars.iv
  %8 = load float, ptr %7, align 4, !tbaa !3
  %9 = fpext reassoc nsz arcp float %8 to double
  %10 = insertelement <2 x double> poison, double %9, i64 0
  %11 = shufflevector <2 x double> %10, <2 x double> poison, <2 x i32> zeroinitializer
  %12 = shufflevector <2 x double> %.04157, <2 x double> %.04058, <2 x i32> <i32 1, i32 2>
  %13 = shufflevector <2 x double> %.04256, <2 x double> %.04157, <2 x i32> <i32 1, i32 2>
  %14 = shufflevector <2 x double> %.04355, <2 x double> %.04256, <2 x i32> <i32 1, i32 2>
  %15 = shufflevector <2 x double> %.04454, <2 x double> %.04355, <2 x i32> <i32 1, i32 2>
  %16 = shufflevector <2 x double> %10, <2 x double> %.04454, <2 x i32> <i32 0, i32 2>
  %17 = fmul reassoc nsz arcp <2 x double> %16, %11
  %18 = fadd reassoc nsz arcp <2 x double> %17, %.04850
  %19 = fmul reassoc nsz arcp <2 x double> %11, %15
  %20 = fadd reassoc nsz arcp <2 x double> %19, %.04751
  %21 = fmul reassoc nsz arcp <2 x double> %11, %14
  %22 = fadd reassoc nsz arcp <2 x double> %21, %.04652
  %23 = fmul reassoc nsz arcp <2 x double> %11, %13
  %24 = fadd reassoc nsz arcp <2 x double> %23, %.04553
  %25 = fmul reassoc nsz arcp <2 x double> %11, %12
  %26 = fadd reassoc nsz arcp <2 x double> %25, %.03959
  %indvars.iv.next = add nsw i64 %indvars.iv, -1
  %.not = icmp eq i64 %indvars.iv, 0
  br i1 %.not, label %._crit_edge, label %.lr.ph, !llvm.loop !10

._crit_edge:                                      ; preds = %.lr.ph, %4
  %.048.lcssa = phi <2 x double> [ zeroinitializer, %4 ], [ %18, %.lr.ph ]
  %.047.lcssa = phi <2 x double> [ zeroinitializer, %4 ], [ %20, %.lr.ph ]
  %.046.lcssa = phi <2 x double> [ zeroinitializer, %4 ], [ %22, %.lr.ph ]
  %.045.lcssa = phi <2 x double> [ zeroinitializer, %4 ], [ %24, %.lr.ph ]
  %.039.lcssa = phi <2 x double> [ zeroinitializer, %4 ], [ %26, %.lr.ph ]
  store <2 x double> %.048.lcssa, ptr %3, align 1, !tbaa !9
  %27 = getelementptr inbounds nuw i8, ptr %3, i64 16
  store <2 x double> %.047.lcssa, ptr %27, align 1, !tbaa !9
  %28 = getelementptr inbounds nuw i8, ptr %3, i64 32
  store <2 x double> %.046.lcssa, ptr %28, align 1, !tbaa !9
  %29 = getelementptr inbounds nuw i8, ptr %3, i64 48
  store <2 x double> %.045.lcssa, ptr %29, align 1, !tbaa !9
  %30 = getelementptr inbounds nuw i8, ptr %3, i64 64
  store <2 x double> %.039.lcssa, ptr %30, align 1, !tbaa !9
  ret void
}